target datalayout = "e-m:e-p270:32:32-p271:32:32-p272:64:64-i64:64-i128:128-f80:128-n8:16:32:64-S128"
target triple = "x86_64-pc-linux-gnu"

%struct.pg_conn = type { ptr, ptr, ptr, ptr, ptr, ptr, ptr, ptr, ptr, ptr, ptr, ptr, ptr, ptr, ptr, ptr, ptr, ptr, ptr, ptr, ptr, ptr, ptr, ptr, ptr, ptr, ptr, ptr, ptr, ptr, ptr, ptr, ptr, ptr, ptr, ptr, ptr, ptr, ptr, ptr, ptr, ptr, ptr, i8, ptr, i32, %struct.PGNoticeHooks, ptr, i32, i32, i32, i32, i32, [6 x i8], i8, i8, i32, i8, i8, i32, i8, i32, ptr, ptr, i32, i32, ptr, ptr, ptr, ptr, ptr, i32, %struct.SockAddr, %struct.SockAddr, i32, i32, i8, i8, i8, i8, i8, i8, ptr, i8, i32, [1 x ptr], i8, i8, ptr, ptr, i32, i32, i32, i8, i8, i32, i32, ptr, i8, i64, ptr, i64, ptr, i32, i32, ptr, i32, i8, i32, i32, i32, i32, ptr, %struct.pg_prng_state, ptr, i32, i32, i32, i32, ptr, i32, i32, i32, i32, ptr, i32, ptr, i8, ptr, ptr, ptr, i32, i8, i8, i8, i8, i8, i8, i8, i8, %struct.PQExpBufferData, i32, %struct.PQExpBufferData }
%struct.PGNoticeHooks = type { ptr, ptr, ptr, ptr }
%struct.SockAddr = type { %struct.sockaddr_storage, i32 }
%struct.sockaddr_storage = type { i16, [118 x i8], i64 }
%struct.pg_prng_state = type { i64, i64 }
%struct.PQExpBufferData = type { ptr, i64, i64 }

@.str.2 = private unnamed_addr constant [42 x i8] c"cannot allocate memory for output buffer\0A\00", align 1

; Function Attrs: nounwind uwtable
define i32 @pqCheckOutBufferSpace(i64 noundef %0, ptr noundef %1) #0 {
  %3 = alloca i32, align 4
  %4 = alloca i64, align 8
  %5 = alloca ptr, align 8
  %6 = alloca i32, align 4
  %7 = alloca ptr, align 8
  %8 = alloca i32, align 4
  store i64 %0, ptr %4, align 8
  store ptr %1, ptr %5, align 8
  call void @llvm.lifetime.start.p0(i64 4, ptr %6) #10
  %9 = load ptr, ptr %5, align 8
  %10 = getelementptr inbounds nuw %struct.pg_conn, ptr %9, i32 0, i32 120
  %11 = load i32, ptr %10, align 8
  store i32 %11, ptr %6, align 4
  call void @llvm.lifetime.start.p0(i64 8, ptr %7) #10
  %12 = load i64, ptr %4, align 8
  %13 = load i32, ptr %6, align 4
  %14 = sext i32 %13 to i64
  %15 = icmp ule i64 %12, %14
  br i1 %15, label %16, label %17

16:                                               ; preds = %2
  store i32 0, ptr %3, align 4
  store i32 1, ptr %8, align 4
  br label %101

17:                                               ; preds = %2
  br label %18

18:                                               ; preds = %29, %17
  %19 = load i32, ptr %6, align 4
  %20 = mul i32 %19, 2
  store i32 %20, ptr %6, align 4
  br label %21

21:                                               ; preds = %18
  %22 = load i32, ptr %6, align 4
  %23 = icmp sgt i32 %22, 0
  br i1 %23, label %24, label %29

24:                                               ; preds = %21
  %25 = load i64, ptr %4, align 8
  %26 = load i32, ptr %6, align 4
  %27 = sext i32 %26 to i64
  %28 = icmp ugt i64 %25, %27
  br label %29

29:                                               ; preds = %24, %21
  %30 = phi i1 [ false, %21 ], [ %28, %24 ]
  br i1 %30, label %18, label %31, !llvm.loop !7

31:                                               ; preds = %29
  %32 = load i32, ptr %6, align 4
  %33 = icmp sgt i32 %32, 0
  br i1 %33, label %34, label %56

34:                                               ; preds = %31
  %35 = load i64, ptr %4, align 8
  %36 = load i32, ptr %6, align 4
  %37 = sext i32 %36 to i64
  %38 = icmp ule i64 %35, %37
  br i1 %38, label %39, label %56

39:                                               ; preds = %34
  %40 = load ptr, ptr %5, align 8
  %41 = getelementptr inbounds nuw %struct.pg_conn, ptr %40, i32 0, i32 119
  %42 = load ptr, ptr %41, align 8
  %43 = load i32, ptr %6, align 4
  %44 = sext i32 %43 to i64
  %45 = call ptr @realloc(ptr noundef %42, i64 noundef %44) #12
  store ptr %45, ptr %7, align 8
  %46 = load ptr, ptr %7, align 8
  %47 = icmp ne ptr %46, null
  br i1 %47, label %48, label %55

48:                                               ; preds = %39
  %49 = load ptr, ptr %7, align 8
  %50 = load ptr, ptr %5, align 8
  %51 = getelementptr inbounds nuw %struct.pg_conn, ptr %50, i32 0, i32 119
  store ptr %49, ptr %51, align 8
  %52 = load i32, ptr %6, align 4
  %53 = load ptr, ptr %5, align 8
  %54 = getelementptr inbounds nuw %struct.pg_conn, ptr %53, i32 0, i32 120
  store i32 %52, ptr %54, align 8
  store i32 0, ptr %3, align 4
  store i32 1, ptr %8, align 4
  br label %101

55:                                               ; preds = %39
  br label %56

56:                                               ; preds = %55, %34, %31
  %57 = load ptr, ptr %5, align 8
  %58 = getelementptr inbounds nuw %struct.pg_conn, ptr %57, i32 0, i32 120
  %59 = load i32, ptr %58, align 8
  store i32 %59, ptr %6, align 4
  br label %60

60:                                               ; preds = %71, %56
  %61 = load i32, ptr %6, align 4
  %62 = add i32 %61, 8192
  store i32 %62, ptr %6, align 4
  br label %63

63:                                               ; preds = %60
  %64 = load i32, ptr %6, align 4
  %65 = icmp sgt i32 %64, 0
  br i1 %65, label %66, label %71

66:                                               ; preds = %63
  %67 = load i64, ptr %4, align 8
  %68 = load i32, ptr %6, align 4
  %69 = sext i32 %68 to i64
  %70 = icmp ugt i64 %67, %69
  br label %71

71:                                               ; preds = %66, %63
  %72 = phi i1 [ false, %63 ], [ %70, %66 ]
  br i1 %72, label %60, label %73, !llvm.loop !8

73:                                               ; preds = %71
  %74 = load i32, ptr %6, align 4
  %75 = icmp sgt i32 %74, 0
  br i1 %75, label %76, label %98

76:                                               ; preds = %73
  %77 = load i64, ptr %4, align 8
  %78 = load i32, ptr %6, align 4
  %79 = sext i32 %78 to i64
  %80 = icmp ule i64 %77, %79
  br i1 %80, label %81, label %98

81:                                               ; preds = %76
  %82 = load ptr, ptr %5, align 8
  %83 = getelementptr inbounds nuw %struct.pg_conn, ptr %82, i32 0, i32 119
  %84 = load ptr, ptr %83, align 8
  %85 = load i32, ptr %6, align 4
  %86 = sext i32 %85 to i64
  %87 = call ptr @realloc(ptr noundef %84, i64 noundef %86) #12
  store ptr %87, ptr %7, align 8
  %88 = load ptr, ptr %7, align 8
  %89 = icmp ne ptr %88, null
  br i1 %89, label %90, label %97

90:                                               ; preds = %81
  %91 = load ptr, ptr %7, align 8
  %92 = load ptr, ptr %5, align 8
  %93 = getelementptr inbounds nuw %struct.pg_conn, ptr %92, i32 0, i32 119
  store ptr %91, ptr %93, align 8
  %94 = load i32, ptr %6, align 4
  %95 = load ptr, ptr %5, align 8
  %96 = getelementptr inbounds nuw %struct.pg_conn, ptr %95, i32 0, i32 120
  store i32 %94, ptr %96, align 8
  store i32 0, ptr %3, align 4
  store i32 1, ptr %8, align 4
  br label %101

97:                                               ; preds = %81
  br label %98

98:                                               ; preds = %97, %76, %73
  %99 = load ptr, ptr %5, align 8
  %100 = getelementptr inbounds nuw %struct.pg_conn, ptr %99, i32 0, i32 140
  call void @appendPQExpBufferStr(ptr noundef %100, ptr noundef @.str.2)
  store i32 -1, ptr %3, align 4
  store i32 1, ptr %8, align 4
  br label %101

101:                                              ; preds = %98, %90, %48, %16
  call void @llvm.lifetime.end.p0(i64 8, ptr %7) #10
  call void @llvm.lifetime.end.p0(i64 4, ptr %6) #10
  %102 = load i32, ptr %3, align 4
  ret i32 %102
}

; Function Attrs: nounwind uwtable
define i32 @pqPutMsgStart(i8 noundef signext %0, ptr noundef %1) #0 {
  %3 = alloca i32, align 4
  %4 = alloca i8, align 1
  %5 = alloca ptr, align 8
  %6 = alloca i32, align 4
  %7 = alloca i32, align 4
  %8 = alloca i32, align 4
  store i8 %0, ptr %4, align 1
  store ptr %1, ptr %5, align 8
  call void @llvm.lifetime.start.p0(i64 4, ptr %6) #10
  call void @llvm.lifetime.start.p0(i64 4, ptr %7) #10
  %9 = load i8, ptr %4, align 1
  %10 = icmp ne i8 %9, 0
  br i1 %10, label %11, label %16

11:                                               ; preds = %2
  %12 = load ptr, ptr %5, align 8
  %13 = getelementptr inbounds nuw %struct.pg_conn, ptr %12, i32 0, i32 121
  %14 = load i32, ptr %13, align 4
  %15 = add i32 %14, 1
  store i32 %15, ptr %7, align 4
  br label %20

16:                                               ; preds = %2
  %17 = load ptr, ptr %5, align 8
  %18 = getelementptr inbounds nuw %struct.pg_conn, ptr %17, i32 0, i32 121
  %19 = load i32, ptr %18, align 4
  store i32 %19, ptr %7, align 4
  br label %20

20:                                               ; preds = %16, %11
  %21 = load i32, ptr %7, align 4
  store i32 %21, ptr %6, align 4
  %22 = load i32, ptr %7, align 4
  %23 = add i32 %22, 4
  store i32 %23, ptr %7, align 4
  %24 = load i32, ptr %7, align 4
  %25 = sext i32 %24 to i64
  %26 = load ptr, ptr %5, align 8
  %27 = call i32 @pqCheckOutBufferSpace(i64 noundef %25, ptr noundef %26)
  %28 = icmp ne i32 %27, 0
  br i1 %28, label %29, label %30

29:                                               ; preds = %20
  store i32 -1, ptr %3, align 4
  store i32 1, ptr %8, align 4
  br label %50

30:                                               ; preds = %20
  %31 = load i8, ptr %4, align 1
  %32 = icmp ne i8 %31, 0
  br i1 %32, label %33, label %43

33:                                               ; preds = %30
  %34 = load i8, ptr %4, align 1
  %35 = load ptr, ptr %5, align 8
  %36 = getelementptr inbounds nuw %struct.pg_conn, ptr %35, i32 0, i32 119
  %37 = load ptr, ptr %36, align 8
  %38 = load ptr, ptr %5, align 8
  %39 = getelementptr inbounds nuw %struct.pg_conn, ptr %38, i32 0, i32 121
  %40 = load i32, ptr %39, align 4
  %41 = sext i32 %40 to i64
  %42 = getelementptr inbounds i8, ptr %37, i64 %41
  store i8 %34, ptr %42, align 1
  br label %43

43:                                               ; preds = %33, %30
  %44 = load i32, ptr %6, align 4
  %45 = load ptr, ptr %5, align 8
  %46 = getelementptr inbounds nuw %struct.pg_conn, ptr %45, i32 0, i32 122
  store i32 %44, ptr %46, align 8
  %47 = load i32, ptr %7, align 4
  %48 = load ptr, ptr %5, align 8
  %49 = getelementptr inbounds nuw %struct.pg_conn, ptr %48, i32 0, i32 123
  store i32 %47, ptr %49, align 4
  store i32 0, ptr %3, align 4
  store i32 1, ptr %8, align 4
  br label %50

50:                                               ; preds = %43, %29
  call void @llvm.lifetime.end.p0(i64 4, ptr %7) #10
  call void @llvm.lifetime.end.p0(i64 4, ptr %6) #10
  %51 = load i32, ptr %3, align 4
  ret i32 %51
}