; Function Attrs: nounwind uwtable
define range(i32 -1, 1) i32 @pqPutMsgStart(i8 noundef signext %0, ptr noundef %1) local_unnamed_addr #2 {
  %.not = icmp ne i8 %0, 0
  %3 = getelementptr inbounds nuw i8, ptr %1, i64 1036
  %4 = load i32, ptr %3, align 4
  %5 = zext i1 %.not to i32
  %.0 = add i32 %4, %5
  %6 = add i32 %.0, 4
  %7 = getelementptr inbounds nuw i8, ptr %1, i64 1032
  %8 = load i32, ptr %7, align 8
  %.not.i = icmp ugt i32 %6, %8
  br i1 %.not.i, label %.preheader.i, label %33

.preheader.i:                                     ; preds = %2, %.preheader.i
  %.0.i = phi i32 [ %9, %.preheader.i ], [ %8, %2 ]
  %9 = shl i32 %.0.i, 1
  %10 = icmp sgt i32 %9, 0
  %11 = icmp ugt i32 %6, %9
  %12 = and i1 %10, %11
  br i1 %12, label %.preheader.i, label %13, !llvm.loop !3

13:                                               ; preds = %.preheader.i
  %.not44.i = xor i1 %10, true
  %or.cond.i = or i1 %11, %.not44.i
  br i1 %or.cond.i, label %.preheader, label %14

.preheader:                                       ; preds = %._crit_edge.i, %13
  %.1.i.ph = phi i32 [ %8, %13 ], [ %.pre.i, %._crit_edge.i ]
  br label %20

14:                                               ; preds = %13
  %15 = zext nneg i32 %9 to i64
  %16 = getelementptr inbounds nuw i8, ptr %1, i64 1024
  %17 = load ptr, ptr %16, align 8
  %18 = tail call ptr @realloc(ptr noundef %17, i64 noundef %15) #18
  %.not41.i = icmp eq ptr %18, null
  br i1 %.not41.i, label %._crit_edge.i, label %19

._crit_edge.i:                                    ; preds = %14
  %.pre.i = load i32, ptr %7, align 8
  br label %.preheader

19:                                               ; preds = %14
  store ptr %18, ptr %16, align 8
  br label %.sink.split

20:                                               ; preds = %.preheader, %20
  %.1.i = phi i32 [ %21, %20 ], [ %.1.i.ph, %.preheader ]
  %21 = add i32 %.1.i, 8192
  %22 = icmp sgt i32 %21, 0
  %23 = icmp ugt i32 %6, %21
  %24 = and i1 %22, %23
  br i1 %24, label %20, label %25, !llvm.loop !5

25:                                               ; preds = %20
  %.not45.i = xor i1 %22, true
  %or.cond46.i = or i1 %23, %.not45.i
  br i1 %or.cond46.i, label %pqCheckOutBufferSpace.exit, label %26

26:                                               ; preds = %25
  %27 = zext nneg i32 %21 to i64
  %28 = getelementptr inbounds nuw i8, ptr %1, i64 1024
  %29 = load ptr, ptr %28, align 8
  %30 = tail call ptr @realloc(ptr noundef %29, i64 noundef %27) #18
  %.not43.i = icmp eq ptr %30, null
  br i1 %.not43.i, label %pqCheckOutBufferSpace.exit, label %31

31:                                               ; preds = %26
  store ptr %30, ptr %28, align 8
  br label %.sink.split

pqCheckOutBufferSpace.exit:                       ; preds = %25, %26
  %32 = getelementptr inbounds nuw i8, ptr %1, i64 1120
  tail call void @appendPQExpBufferStr(ptr noundef nonnull %32, ptr noundef nonnull @.str.2) #19
  br label %44

.sink.split:                                      ; preds = %31, %19
  %.lcssa38.sink = phi i32 [ %9, %19 ], [ %21, %31 ]
  store i32 %.lcssa38.sink, ptr %7, align 8
  br label %33

33:                                               ; preds = %.sink.split, %2
  br i1 %.not, label %34, label %41

34:                                               ; preds = %33
  %35 = getelementptr inbounds nuw i8, ptr %1, i64 1024
  %36 = load ptr, ptr %35, align 8
  %37 = getelementptr inbounds nuw i8, ptr %1, i64 1036
  %38 = load i32, ptr %37, align 4
  %39 = sext i32 %38 to i64
  %40 = getelementptr inbounds i8, ptr %36, i64 %39
  store i8 %0, ptr %40, align 1
  br label %41

41:                                               ; preds = %34, %33
  %42 = getelementptr inbounds nuw i8, ptr %1, i64 1040
  store i32 %.0, ptr %42, align 8
  %43 = getelementptr inbounds nuw i8, ptr %1, i64 1044
  store i32 %6, ptr %43, align 4
  br label %44

44:                                               ; preds = %pqCheckOutBufferSpace.exit, %41
  %.015 = phi i32 [ 0, %41 ], [ -1, %pqCheckOutBufferSpace.exit ]
  ret i32 %.015
}